target datalayout = "e-m:e-p270:32:32-p271:32:32-p272:64:64-i64:64-i128:128-f80:128-n8:16:32:64-S128"
target triple = "x86_64-pc-linux-gnu"

%class.G1GCPhaseTimes = type { i32, i64, double, [45 x ptr], double, double, double, double, double, double, double, double, double, double, double, double, double, double, double, double, double, double, double, double, double, double, double, double, double, double, %class.ReferenceProcessorPhaseTimes, %class.WeakProcessorTimes }
%class.ReferenceProcessorPhaseTimes = type { [5 x ptr], [3 x double], [3 x double], ptr, double, [4 x i64], [4 x i64], i8, ptr }
%class.WeakProcessorTimes = type { i32, i32, double, [10 x ptr] }
%class.WorkerDataArray = type { ptr, i32, ptr, ptr, i8, [9 x ptr] }
%class.WorkerDataArray.7 = type { ptr, i32, ptr, ptr, i8, [9 x ptr] }

; Function Attrs: mustprogress nounwind uwtable
define linkonce_odr hidden noundef i64 @_ZNK15WorkerDataArrayImE3getEj(ptr noundef nonnull align 8 dereferenceable(112) %0, i32 noundef %1) #1 comdat align 2 {
  %3 = alloca ptr, align 8
  %4 = alloca i32, align 4
  store ptr %0, ptr %3, align 8
  store i32 %1, ptr %4, align 4
  %5 = load ptr, ptr %3, align 8
  %6 = getelementptr inbounds %class.WorkerDataArray.7, ptr %5, i32 0, i32 0
  %7 = load ptr, ptr %6, align 8
  %8 = load i32, ptr %4, align 4
  %9 = zext i32 %8 to i64
  %10 = getelementptr inbounds i64, ptr %7, i64 %9
  %11 = load i64, ptr %10, align 8
  ret i64 %11
}

; Function Attrs: mustprogress nounwind uwtable
define linkonce_odr hidden noundef i64 @_ZNK15WorkerDataArrayImE3sumEv(ptr noundef nonnull align 8 dereferenceable(112) %0) #1 comdat align 2 {
  %2 = alloca ptr, align 8
  %3 = alloca i64, align 8
  %4 = alloca i32, align 4
  store ptr %0, ptr %2, align 8
  %5 = load ptr, ptr %2, align 8
  store i64 0, ptr %3, align 8
  store i32 0, ptr %4, align 4
  br label %6

6:                                                ; preds = %22, %1
  %7 = load i32, ptr %4, align 4
  %8 = getelementptr inbounds %class.WorkerDataArray.7, ptr %5, i32 0, i32 1
  %9 = load i32, ptr %8, align 8
  %10 = icmp ult i32 %7, %9
  br i1 %10, label %11, label %25

11:                                               ; preds = %6
  %12 = load i32, ptr %4, align 4
  %13 = call noundef i64 @_ZNK15WorkerDataArrayImE3getEj(ptr noundef nonnull align 8 dereferenceable(112) %5, i32 noundef %12)
  %14 = call noundef i64 @_ZN15WorkerDataArrayImE13uninitializedEv()
  %15 = icmp ne i64 %13, %14
  br i1 %15, label %16, label %21

16:                                               ; preds = %11
  %17 = load i32, ptr %4, align 4
  %18 = call noundef i64 @_ZNK15WorkerDataArrayImE3getEj(ptr noundef nonnull align 8 dereferenceable(112) %5, i32 noundef %17)
  %19 = load i64, ptr %3, align 8
  %20 = add i64 %19, %18
  store i64 %20, ptr %3, align 8
  br label %21

21:                                               ; preds = %16, %11
  br label %22

22:                                               ; preds = %21
  %23 = load i32, ptr %4, align 4
  %24 = add i32 %23, 1
  store i32 %24, ptr %4, align 4
  br label %6, !llvm.loop !14

25:                                               ; preds = %6
  %26 = load i64, ptr %3, align 8
  ret i64 %26
}

; Function Attrs: mustprogress nounwind uwtable
define linkonce_odr hidden noundef ptr @_ZNK15WorkerDataArrayIdE17thread_work_itemsEj(ptr noundef nonnull align 8 dereferenceable(112) %0, i32 noundef %1) #1 comdat align 2 {
  %3 = alloca ptr, align 8
  %4 = alloca i32, align 4
  store ptr %0, ptr %3, align 8
  store i32 %1, ptr %4, align 4
  %5 = load ptr, ptr %3, align 8
  %6 = getelementptr inbounds %class.WorkerDataArray, ptr %5, i32 0, i32 5
  %7 = load i32, ptr %4, align 4
  %8 = zext i32 %7 to i64
  %9 = getelementptr inbounds [9 x ptr], ptr %6, i64 0, i64 %8
  %10 = load ptr, ptr %9, align 8
  ret ptr %10
}

; Function Attrs: mustprogress nounwind uwtable
define hidden noundef i64 @_ZN14G1GCPhaseTimes21sum_thread_work_itemsENS_11GCParPhasesEj(ptr noundef nonnull align 8 dereferenceable(872) %0, i32 noundef %1, i32 noundef %2) #1 align 2 {
  %4 = alloca i64, align 8
  %5 = alloca ptr, align 8
  %6 = alloca i32, align 4
  %7 = alloca i32, align 4
  store ptr %0, ptr %5, align 8
  store i32 %1, ptr %6, align 4
  store i32 %2, ptr %7, align 4
  %8 = load ptr, ptr %5, align 8
  %9 = getelementptr inbounds %class.G1GCPhaseTimes, ptr %8, i32 0, i32 3
  %10 = load i32, ptr %6, align 4
  %11 = zext i32 %10 to i64
  %12 = getelementptr inbounds [45 x ptr], ptr %9, i64 0, i64 %11
  %13 = load ptr, ptr %12, align 8
  %14 = icmp eq ptr %13, null
  br i1 %14, label %15, label %16

15:                                               ; preds = %3
  store i64 0, ptr %4, align 8
  br label %25

16:                                               ; preds = %3
  %17 = getelementptr inbounds %class.G1GCPhaseTimes, ptr %8, i32 0, i32 3
  %18 = load i32, ptr %6, align 4
  %19 = zext i32 %18 to i64
  %20 = getelementptr inbounds [45 x ptr], ptr %17, i64 0, i64 %19
  %21 = load ptr, ptr %20, align 8
  %22 = load i32, ptr %7, align 4
  %23 = call noundef ptr @_ZNK15WorkerDataArrayIdE17thread_work_itemsEj(ptr noundef nonnull align 8 dereferenceable(112) %21, i32 noundef %22)
  %24 = call noundef i64 @_ZNK15WorkerDataArrayImE3sumEv(ptr noundef nonnull align 8 dereferenceable(112) %23)
  store i64 %24, ptr %4, align 8
  br label %25

25:                                               ; preds = %16, %15
  %26 = load i64, ptr %4, align 8
  ret i64 %26
}