; Function Attrs: mustprogress nounwind uwtable
define hidden noundef i64 @_ZN14G1GCPhaseTimes21sum_thread_work_itemsENS_11GCParPhasesEj(ptr nocapture noundef nonnull readonly align 8 dereferenceable(872) %0, i32 noundef %1, i32 noundef %2) local_unnamed_addr #0 align 2 {
  %4 = getelementptr inbounds i8, ptr %0, i64 24
  %5 = zext i32 %1 to i64
  %6 = getelementptr inbounds [45 x ptr], ptr %4, i64 0, i64 %5
  %7 = load ptr, ptr %6, align 8
  %8 = icmp eq ptr %7, null
  br i1 %8, label %_ZNK15WorkerDataArrayImE3sumEv.exit, label %9

9:                                                ; preds = %3
  %10 = getelementptr inbounds i8, ptr %7, i64 40
  %11 = zext i32 %2 to i64
  %12 = getelementptr inbounds [9 x ptr], ptr %10, i64 0, i64 %11
  %13 = load ptr, ptr %12, align 8
  %14 = getelementptr inbounds i8, ptr %13, i64 8
  %15 = load i32, ptr %14, align 8
  %.not9.i = icmp eq i32 %15, 0
  br i1 %.not9.i, label %_ZNK15WorkerDataArrayImE3sumEv.exit, label %.lr.ph.i

.lr.ph.i:                                         ; preds = %9, %25
  %indvars.iv.i = phi i64 [ %indvars.iv.next.i, %25 ], [ 0, %9 ]
  %.067.i = phi i64 [ %.1.i, %25 ], [ 0, %9 ]
  %16 = load ptr, ptr %13, align 8
  %17 = getelementptr inbounds i64, ptr %16, i64 %indvars.iv.i
  %18 = load i64, ptr %17, align 8
  %19 = tail call noundef i64 @_ZN15WorkerDataArrayImE13uninitializedEv() #18
  %.not.i = icmp eq i64 %18, %19
  br i1 %.not.i, label %25, label %20

20:                                               ; preds = %.lr.ph.i
  %21 = load ptr, ptr %13, align 8
  %22 = getelementptr inbounds i64, ptr %21, i64 %indvars.iv.i
  %23 = load i64, ptr %22, align 8
  %24 = add i64 %23, %.067.i
  br label %25

25:                                               ; preds = %20, %.lr.ph.i
  %.1.i = phi i64 [ %24, %20 ], [ %.067.i, %.lr.ph.i ]
  %indvars.iv.next.i = add nuw nsw i64 %indvars.iv.i, 1
  %26 = load i32, ptr %14, align 8
  %27 = zext i32 %26 to i64
  %28 = icmp ult i64 %indvars.iv.next.i, %27
  br i1 %28, label %.lr.ph.i, label %_ZNK15WorkerDataArrayImE3sumEv.exit, !llvm.loop !15

_ZNK15WorkerDataArrayImE3sumEv.exit:              ; preds = %25, %9, %3
  %.0 = phi i64 [ 0, %3 ], [ 0, %9 ], [ %.1.i, %25 ]
  ret i64 %.0
}